target datalayout = "e-m:e-p270:32:32-p271:32:32-p272:64:64-i64:64-i128:128-f80:128-n8:16:32:64-S128"
target triple = "x86_64-pc-linux-gnu"

%struct.cli_pcre_data = type { ptr, ptr, i32, ptr, i32 }

; Function Attrs: nounwind uwtable
define void @cli_pcre_free_single(ptr noundef %0) #0 {
  %2 = alloca ptr, align 8
  store ptr %0, ptr %2, align 8
  %3 = load ptr, ptr %2, align 8
  %4 = getelementptr inbounds %struct.cli_pcre_data, ptr %3, i32 0, i32 0
  %5 = load ptr, ptr %4, align 8
  %6 = icmp ne ptr %5, null
  br i1 %6, label %7, label %13

7:                                                ; preds = %1
  %8 = load ptr, ptr %2, align 8
  %9 = getelementptr inbounds %struct.cli_pcre_data, ptr %8, i32 0, i32 0
  %10 = load ptr, ptr %9, align 8
  call void @pcre2_code_free_8(ptr noundef %10)
  %11 = load ptr, ptr %2, align 8
  %12 = getelementptr inbounds %struct.cli_pcre_data, ptr %11, i32 0, i32 0
  store ptr null, ptr %12, align 8
  br label %13

13:                                               ; preds = %7, %1
  %14 = load ptr, ptr %2, align 8
  %15 = getelementptr inbounds %struct.cli_pcre_data, ptr %14, i32 0, i32 1
  %16 = load ptr, ptr %15, align 8
  %17 = icmp ne ptr %16, null
  br i1 %17, label %18, label %24

18:                                               ; preds = %13
  %19 = load ptr, ptr %2, align 8
  %20 = getelementptr inbounds %struct.cli_pcre_data, ptr %19, i32 0, i32 1
  %21 = load ptr, ptr %20, align 8
  call void @pcre2_match_context_free_8(ptr noundef %21)
  %22 = load ptr, ptr %2, align 8
  %23 = getelementptr inbounds %struct.cli_pcre_data, ptr %22, i32 0, i32 1
  store ptr null, ptr %23, align 8
  br label %24

24:                                               ; preds = %18, %13
  %25 = load ptr, ptr %2, align 8
  %26 = getelementptr inbounds %struct.cli_pcre_data, ptr %25, i32 0, i32 3
  %27 = load ptr, ptr %26, align 8
  %28 = icmp ne ptr %27, null
  br i1 %28, label %29, label %35

29:                                               ; preds = %24
  %30 = load ptr, ptr %2, align 8
  %31 = getelementptr inbounds %struct.cli_pcre_data, ptr %30, i32 0, i32 3
  %32 = load ptr, ptr %31, align 8
  call void @free(ptr noundef %32) #3
  %33 = load ptr, ptr %2, align 8
  %34 = getelementptr inbounds %struct.cli_pcre_data, ptr %33, i32 0, i32 3
  store ptr null, ptr %34, align 8
  br label %35

35:                                               ; preds = %29, %24
  ret void
}