; Function Attrs: nounwind uwtable
define void @cli_pcre_free_single(ptr nocapture noundef %0) local_unnamed_addr #0 {
  %2 = load ptr, ptr %0, align 8
  %.not = icmp eq ptr %2, null
  br i1 %.not, label %4, label %3

3:                                                ; preds = %1
  tail call void @pcre2_code_free_8(ptr noundef nonnull %2) #6
  store ptr null, ptr %0, align 8
  br label %4

4:                                                ; preds = %3, %1
  %5 = getelementptr inbounds i8, ptr %0, i64 8
  %6 = load ptr, ptr %5, align 8
  %.not11 = icmp eq ptr %6, null
  br i1 %.not11, label %8, label %7

7:                                                ; preds = %4
  tail call void @pcre2_match_context_free_8(ptr noundef nonnull %6) #6
  store ptr null, ptr %5, align 8
  br label %8

8:                                                ; preds = %7, %4
  %9 = getelementptr inbounds i8, ptr %0, i64 24
  %10 = load ptr, ptr %9, align 8
  %.not12 = icmp eq ptr %10, null
  br i1 %.not12, label %12, label %11

11:                                               ; preds = %8
  tail call void @free(ptr noundef nonnull %10) #6
  store ptr null, ptr %9, align 8
  br label %12

12:                                               ; preds = %11, %8
  ret void
}